target datalayout = "e-m:e-p270:32:32-p271:32:32-p272:64:64-i64:64-i128:128-f80:128-n8:16:32:64-S128"
target triple = "x86_64-pc-linux-gnu"

%struct.nghttp2_settings_entry = type { i32, i32 }

; Function Attrs: nounwind uwtable
define hidden void @nghttp2_frame_unpack_settings_entry(ptr noundef %0, ptr noundef %1) #0 {
  %3 = alloca ptr, align 8
  %4 = alloca ptr, align 8
  store ptr %0, ptr %3, align 8, !tbaa !8
  store ptr %1, ptr %4, align 8, !tbaa !3
  %5 = load ptr, ptr %4, align 8, !tbaa !3
  %6 = getelementptr inbounds i8, ptr %5, i64 0
  %7 = call zeroext i16 @nghttp2_get_uint16(ptr noundef %6)
  %8 = zext i16 %7 to i32
  %9 = load ptr, ptr %3, align 8, !tbaa !8
  %10 = getelementptr inbounds nuw %struct.nghttp2_settings_entry, ptr %9, i32 0, i32 0
  store i32 %8, ptr %10, align 4, !tbaa !88
  %11 = load ptr, ptr %4, align 8, !tbaa !3
  %12 = getelementptr inbounds i8, ptr %11, i64 2
  %13 = call i32 @nghttp2_get_uint32(ptr noundef %12)
  %14 = load ptr, ptr %3, align 8, !tbaa !8
  %15 = getelementptr inbounds nuw %struct.nghttp2_settings_entry, ptr %14, i32 0, i32 1
  store i32 %13, ptr %15, align 4, !tbaa !90
  ret void
}

; Function Attrs: nounwind uwtable
define hidden i32 @nghttp2_frame_unpack_settings_payload2(ptr noundef %0, ptr noundef %1, ptr noundef %2, i64 noundef %3, ptr noundef %4) #0 {
  %6 = alloca i32, align 4
  %7 = alloca ptr, align 8
  %8 = alloca ptr, align 8
  %9 = alloca ptr, align 8
  %10 = alloca i64, align 8
  %11 = alloca ptr, align 8
  %12 = alloca i64, align 8
  %13 = alloca i32, align 4
  %14 = alloca i64, align 8
  store ptr %0, ptr %7, align 8, !tbaa !92
  store ptr %1, ptr %8, align 8, !tbaa !94
  store ptr %2, ptr %9, align 8, !tbaa !3
  store i64 %3, ptr %10, align 8, !tbaa !18
  store ptr %4, ptr %11, align 8, !tbaa !8
  call void @llvm.lifetime.start.p0(i64 8, ptr %12) #7
  %15 = load i64, ptr %10, align 8, !tbaa !18
  %16 = udiv i64 %15, 6
  %17 = load ptr, ptr %8, align 8, !tbaa !94
  store i64 %16, ptr %17, align 8, !tbaa !18
  %18 = load ptr, ptr %8, align 8, !tbaa !94
  %19 = load i64, ptr %18, align 8, !tbaa !18
  %20 = icmp eq i64 %19, 0
  br i1 %20, label %21, label %23

21:                                               ; preds = %5
  %22 = load ptr, ptr %7, align 8, !tbaa !92
  store ptr null, ptr %22, align 8, !tbaa !8
  store i32 0, ptr %6, align 4
  store i32 1, ptr %13, align 4
  br label %54

23:                                               ; preds = %5
  %24 = load ptr, ptr %11, align 8, !tbaa !8
  %25 = load ptr, ptr %8, align 8, !tbaa !94
  %26 = load i64, ptr %25, align 8, !tbaa !18
  %27 = mul i64 %26, 8
  %28 = call ptr @nghttp2_mem_malloc(ptr noundef %24, i64 noundef %27)
  %29 = load ptr, ptr %7, align 8, !tbaa !92
  store ptr %28, ptr %29, align 8, !tbaa !8
  %30 = load ptr, ptr %7, align 8, !tbaa !92
  %31 = load ptr, ptr %30, align 8, !tbaa !8
  %32 = icmp eq ptr %31, null
  br i1 %32, label %33, label %34

33:                                               ; preds = %23
  store i32 -901, ptr %6, align 4
  store i32 1, ptr %13, align 4
  br label %54

34:                                               ; preds = %23
  store i64 0, ptr %12, align 8, !tbaa !18
  br label %35

35:                                               ; preds = %50, %34
  %36 = load i64, ptr %12, align 8, !tbaa !18
  %37 = load ptr, ptr %8, align 8, !tbaa !94
  %38 = load i64, ptr %37, align 8, !tbaa !18
  %39 = icmp ult i64 %36, %38
  br i1 %39, label %40, label %53

40:                                               ; preds = %35
  call void @llvm.lifetime.start.p0(i64 8, ptr %14) #7
  %41 = load i64, ptr %12, align 8, !tbaa !18
  %42 = mul i64 %41, 6
  store i64 %42, ptr %14, align 8, !tbaa !18
  %43 = load ptr, ptr %7, align 8, !tbaa !92
  %44 = load ptr, ptr %43, align 8, !tbaa !8
  %45 = load i64, ptr %12, align 8, !tbaa !18
  %46 = getelementptr inbounds nuw %struct.nghttp2_settings_entry, ptr %44, i64 %45
  %47 = load ptr, ptr %9, align 8, !tbaa !3
  %48 = load i64, ptr %14, align 8, !tbaa !18
  %49 = getelementptr inbounds nuw i8, ptr %47, i64 %48
  call void @nghttp2_frame_unpack_settings_entry(ptr noundef %46, ptr noundef %49)
  call void @llvm.lifetime.end.p0(i64 8, ptr %14) #7
  br label %50

50:                                               ; preds = %40
  %51 = load i64, ptr %12, align 8, !tbaa !18
  %52 = add i64 %51, 1
  store i64 %52, ptr %12, align 8, !tbaa !18
  br label %35, !llvm.loop !96

53:                                               ; preds = %35
  store i32 0, ptr %6, align 4
  store i32 1, ptr %13, align 4
  br label %54

54:                                               ; preds = %53, %33, %21
  call void @llvm.lifetime.end.p0(i64 8, ptr %12) #7
  %55 = load i32, ptr %6, align 4
  ret i32 %55
}