; Function Attrs: nounwind uwtable
define hidden range(i32 -901, 1) i32 @nghttp2_frame_unpack_settings_payload2(ptr noundef captures(none) initializes((0, 8)) %0, ptr noundef captures(none) initializes((0, 8)) %1, ptr noundef %2, i64 noundef %3, ptr noundef %4) local_unnamed_addr #0 {
  %6 = udiv i64 %3, 6
  store i64 %6, ptr %1, align 8, !tbaa !85
  %7 = icmp ult i64 %3, 6
  br i1 %7, label %8, label %9

8:                                                ; preds = %5
  store ptr null, ptr %0, align 8, !tbaa !86
  br label %.loopexit

9:                                                ; preds = %5
  %10 = shl i64 %6, 3
  %11 = tail call ptr @nghttp2_mem_malloc(ptr noundef %4, i64 noundef %10) #18
  store ptr %11, ptr %0, align 8, !tbaa !86
  %12 = icmp eq ptr %11, null
  br i1 %12, label %.loopexit, label %.preheader

.preheader:                                       ; preds = %9
  %13 = load i64, ptr %1, align 8, !tbaa !85
  %.not = icmp eq i64 %13, 0
  br i1 %.not, label %.loopexit, label %.lr.ph

.lr.ph:                                           ; preds = %.preheader, %.lr.ph
  %.01618 = phi i64 [ %23, %.lr.ph ], [ 0, %.preheader ]
  %14 = mul i64 %.01618, 6
  %15 = load ptr, ptr %0, align 8, !tbaa !86
  %16 = getelementptr inbounds nuw %struct.nghttp2_settings_entry, ptr %15, i64 %.01618
  %17 = getelementptr inbounds nuw i8, ptr %2, i64 %14
  %18 = tail call zeroext i16 @nghttp2_get_uint16(ptr noundef %17) #18
  %19 = zext i16 %18 to i32
  store i32 %19, ptr %16, align 4, !tbaa !81
  %20 = getelementptr inbounds nuw i8, ptr %17, i64 2
  %21 = tail call i32 @nghttp2_get_uint32(ptr noundef nonnull %20) #18
  %22 = getelementptr inbounds nuw i8, ptr %16, i64 4
  store i32 %21, ptr %22, align 4, !tbaa !83
  %23 = add nuw i64 %.01618, 1
  %24 = load i64, ptr %1, align 8, !tbaa !85
  %25 = icmp ult i64 %23, %24
  br i1 %25, label %.lr.ph, label %.loopexit, !llvm.loop !87

.loopexit:                                        ; preds = %.lr.ph, %.preheader, %9, %8
  %.0 = phi i32 [ 0, %8 ], [ -901, %9 ], [ 0, %.preheader ], [ 0, %.lr.ph ]
  ret i32 %.0
}